target datalayout = "e-m:e-p270:32:32-p271:32:32-p272:64:64-i64:64-i128:128-f80:128-n8:16:32:64-S128"
target triple = "x86_64-pc-linux-gnu"

%struct.ident_t = type { i32, i32, i32, i32, ptr }
%"class.std::vector.0" = type { %"struct.std::_Vector_base.1" }
%"struct.std::_Vector_base.1" = type { %"struct.std::_Vector_base<float, gmx::Allocator<float, gmx::AlignedAllocationPolicy>>::_Vector_impl" }
%"struct.std::_Vector_base<float, gmx::Allocator<float, gmx::AlignedAllocationPolicy>>::_Vector_impl" = type { %"struct.std::_Vector_base<float, gmx::Allocator<float, gmx::AlignedAllocationPolicy>>::_Vector_impl_data" }
%"struct.std::_Vector_base<float, gmx::Allocator<float, gmx::AlignedAllocationPolicy>>::_Vector_impl_data" = type { ptr, ptr, ptr }
%"class.std::vector.3" = type { %"struct.std::_Vector_base.4" }
%"struct.std::_Vector_base.4" = type { %"struct.std::_Vector_base<int, gmx::Allocator<int, gmx::HostAllocationPolicy>>::_Vector_impl" }
%"struct.std::_Vector_base<int, gmx::Allocator<int, gmx::HostAllocationPolicy>>::_Vector_impl" = type { %"class.gmx::Allocator.base.6", %"struct.std::_Vector_base<int, gmx::Allocator<int, gmx::HostAllocationPolicy>>::_Vector_impl_data" }
%"class.gmx::Allocator.base.6" = type { %"class.gmx::HostAllocationPolicy.base" }
%"class.gmx::HostAllocationPolicy.base" = type <{ i32, i8 }>
%"struct.std::_Vector_base<int, gmx::Allocator<int, gmx::HostAllocationPolicy>>::_Vector_impl_data" = type { ptr, ptr, ptr }
%"class.gmx::BasicVector" = type { [3 x float] }
%"class.gmx::ArrayRef.93" = type { %"struct.gmx::ArrayRefIter.94", %"struct.gmx::ArrayRefIter.94" }
%"struct.gmx::ArrayRefIter.94" = type { ptr }
%"class.gmx::GridSet" = type { %"struct.gmx::GridSet::DomainSetup", %"class.std::vector.78", i32, %"struct.gmx::GridSetData", i32, i8, i8, i32, [3 x [3 x float]], i32, i32, %"class.std::vector.83", i32, %"class.std::vector.88" }
%"struct.gmx::GridSet::DomainSetup" = type { i32, i8, i8, %"struct.std::array", ptr }
%"struct.std::array" = type { [3 x i8] }
%"class.std::vector.78" = type { %"struct.std::_Vector_base.79" }
%"struct.std::_Vector_base.79" = type { %"struct.std::_Vector_base<gmx::Grid, std::allocator<gmx::Grid>>::_Vector_impl" }
%"struct.std::_Vector_base<gmx::Grid, std::allocator<gmx::Grid>>::_Vector_impl" = type { %"struct.std::_Vector_base<gmx::Grid, std::allocator<gmx::Grid>>::_Vector_impl_data" }
%"struct.std::_Vector_base<gmx::Grid, std::allocator<gmx::Grid>>::_Vector_impl_data" = type { ptr, ptr, ptr }
%"struct.gmx::GridSetData" = type { %"class.std::vector.3", %"class.std::vector.3" }
%"class.std::vector.83" = type { %"struct.std::_Vector_base.84" }
%"struct.std::_Vector_base.84" = type { %"struct.std::_Vector_base<gmx::GridWork, std::allocator<gmx::GridWork>>::_Vector_impl" }
%"struct.std::_Vector_base<gmx::GridWork, std::allocator<gmx::GridWork>>::_Vector_impl" = type { %"struct.std::_Vector_base<gmx::GridWork, std::allocator<gmx::GridWork>>::_Vector_impl_data" }
%"struct.std::_Vector_base<gmx::GridWork, std::allocator<gmx::GridWork>>::_Vector_impl_data" = type { ptr, ptr, ptr }
%"class.std::vector.88" = type { %"struct.std::_Vector_base.89" }
%"struct.std::_Vector_base.89" = type { %"struct.std::_Vector_base<int, std::allocator<int>>::_Vector_impl" }
%"struct.std::_Vector_base<int, std::allocator<int>>::_Vector_impl" = type { %"struct.std::_Vector_base<int, std::allocator<int>>::_Vector_impl_data" }
%"struct.std::_Vector_base<int, std::allocator<int>>::_Vector_impl_data" = type { ptr, ptr, ptr }
%"struct.gmx::Grid::Geometry" = type { i8, i32, i32, i32, i32, i32 }
%"class.gmx::Grid" = type <{ %"struct.gmx::Grid::Geometry", i32, %"struct.gmx::GridDimensions", i32, i32, i32, i32, i32, [4 x i8], %"class.std::vector.3", %"class.std::vector.3", %"class.std::vector.88", %"class.std::vector.96", %"class.std::vector.101", %"class.std::vector.101", %"class.gmx::ArrayRef.104", %"class.std::vector.0", ptr, %"class.std::vector.88", %"class.std::vector.107", i32, [4 x i8] }>
%"struct.gmx::GridDimensions" = type { %"class.gmx::BasicVector", %"class.gmx::BasicVector", %"class.gmx::BasicVector", float, float, [2 x float], [2 x float], [2 x i32] }
%"class.std::vector.96" = type { %"struct.std::_Vector_base.97" }
%"struct.std::_Vector_base.97" = type { %"struct.std::_Vector_base<gmx::BoundingBox1D, std::allocator<gmx::BoundingBox1D>>::_Vector_impl" }
%"struct.std::_Vector_base<gmx::BoundingBox1D, std::allocator<gmx::BoundingBox1D>>::_Vector_impl" = type { %"struct.std::_Vector_base<gmx::BoundingBox1D, std::allocator<gmx::BoundingBox1D>>::_Vector_impl_data" }
%"struct.std::_Vector_base<gmx::BoundingBox1D, std::allocator<gmx::BoundingBox1D>>::_Vector_impl_data" = type { ptr, ptr, ptr }
%"class.std::vector.101" = type { %"struct.std::_Vector_base.102" }
%"struct.std::_Vector_base.102" = type { %"struct.std::_Vector_base<gmx::BoundingBox, gmx::Allocator<gmx::BoundingBox, gmx::AlignedAllocationPolicy>>::_Vector_impl" }
%"struct.std::_Vector_base<gmx::BoundingBox, gmx::Allocator<gmx::BoundingBox, gmx::AlignedAllocationPolicy>>::_Vector_impl" = type { %"struct.std::_Vector_base<gmx::BoundingBox, gmx::Allocator<gmx::BoundingBox, gmx::AlignedAllocationPolicy>>::_Vector_impl_data" }
%"struct.std::_Vector_base<gmx::BoundingBox, gmx::Allocator<gmx::BoundingBox, gmx::AlignedAllocationPolicy>>::_Vector_impl_data" = type { ptr, ptr, ptr }
%"class.gmx::ArrayRef.104" = type { %"struct.gmx::ArrayRefIter.105", %"struct.gmx::ArrayRefIter.105" }
%"struct.gmx::ArrayRefIter.105" = type { ptr }
%"class.std::vector.107" = type { %"struct.std::_Vector_base.108" }
%"struct.std::_Vector_base.108" = type { %"struct.std::_Vector_base<unsigned int, std::allocator<unsigned int>>::_Vector_impl" }
%"struct.std::_Vector_base<unsigned int, std::allocator<unsigned int>>::_Vector_impl" = type { %"struct.std::_Vector_base<unsigned int, std::allocator<unsigned int>>::_Vector_impl_data" }
%"struct.std::_Vector_base<unsigned int, std::allocator<unsigned int>>::_Vector_impl_data" = type { ptr, ptr, ptr }
%"class.gmx::Range" = type { i32, i32 }
%class.anon.119 = type { i8 }

@2 = private unnamed_addr constant %struct.ident_t { i32 0, i32 2, i32 0, i32 22, ptr @0 }, align 8
@.str.31 = private unnamed_addr constant [15 x i8] c"begin_ <= end_\00", align 1
@.str.32 = private unnamed_addr constant [31 x i8] c"A range should have begin<=end\00", align 1
@__PRETTY_FUNCTION__._ZZN3gmx5RangeIiEC1EiiENKUlvE_clEv = private unnamed_addr constant [89 x i8] c"auto gmx::Range<int>::Range(const int, const int)::(anonymous class)::operator()() const\00", align 1
@.str.33 = private unnamed_addr constant [136 x i8] c"generated/home/dtcxzyw/WorkSpace/Projects/compilers/llvm-opt-benchmark/bench/gromacs/gromacs/api/legacy/include/gromacs/utility/range.h\00", align 1

; Function Attrs: mustprogress nounwind uwtable
define linkonce_odr void @_ZN3gmx12ArrayRefIterIKNS_4GridEEC2EPS2_(ptr noundef nonnull align 8 dereferenceable(8) %0, ptr noundef %1) unnamed_addr #1 comdat align 2 {
  %3 = alloca ptr, align 8
  %4 = alloca ptr, align 8
  store ptr %0, ptr %3, align 8, !tbaa !514
  store ptr %1, ptr %4, align 8, !tbaa !486
  %5 = load ptr, ptr %3, align 8
  %6 = getelementptr inbounds nuw %"struct.gmx::ArrayRefIter.94", ptr %5, i32 0, i32 0
  %7 = load ptr, ptr %4, align 8, !tbaa !486
  store ptr %7, ptr %6, align 8, !tbaa !516
  ret void
}

; Function Attrs: mustprogress nounwind uwtable
define linkonce_odr void @_ZN3gmx8ArrayRefIKNS_4GridEEC2Ev(ptr noundef nonnull align 8 dereferenceable(16) %0) unnamed_addr #1 comdat align 2 {
  %2 = alloca ptr, align 8
  store ptr %0, ptr %2, align 8, !tbaa !484
  %3 = load ptr, ptr %2, align 8
  %4 = getelementptr inbounds nuw %"class.gmx::ArrayRef.93", ptr %3, i32 0, i32 0
  call void @_ZN3gmx12ArrayRefIterIKNS_4GridEEC2EPS2_(ptr noundef nonnull align 8 dereferenceable(8) %4, ptr noundef null) #18
  %5 = getelementptr inbounds nuw %"class.gmx::ArrayRef.93", ptr %3, i32 0, i32 1
  call void @_ZN3gmx12ArrayRefIterIKNS_4GridEEC2EPS2_(ptr noundef nonnull align 8 dereferenceable(8) %5, ptr noundef null) #18
  ret void
}

; Function Attrs: mustprogress nounwind uwtable
define linkonce_odr void @_ZN3gmx8ArrayRefIKNS_4GridEEC2EPS2_S4_(ptr noundef nonnull align 8 dereferenceable(16) %0, ptr noundef %1, ptr noundef %2) unnamed_addr #1 comdat align 2 {
  %4 = alloca ptr, align 8
  %5 = alloca ptr, align 8
  %6 = alloca ptr, align 8
  store ptr %0, ptr %4, align 8, !tbaa !484
  store ptr %1, ptr %5, align 8, !tbaa !486
  store ptr %2, ptr %6, align 8, !tbaa !486
  %7 = load ptr, ptr %4, align 8
  %8 = getelementptr inbounds nuw %"class.gmx::ArrayRef.93", ptr %7, i32 0, i32 0
  %9 = load ptr, ptr %5, align 8, !tbaa !486
  call void @_ZN3gmx12ArrayRefIterIKNS_4GridEEC2EPS2_(ptr noundef nonnull align 8 dereferenceable(8) %8, ptr noundef %9) #18
  %10 = getelementptr inbounds nuw %"class.gmx::ArrayRef.93", ptr %7, i32 0, i32 1
  %11 = load ptr, ptr %6, align 8, !tbaa !486
  call void @_ZN3gmx12ArrayRefIterIKNS_4GridEEC2EPS2_(ptr noundef nonnull align 8 dereferenceable(8) %10, ptr noundef %11) #18
  ret void
}

; Function Attrs: mustprogress nounwind uwtable
define linkonce_odr noundef ptr @_ZNKSt6vectorIN3gmx4GridESaIS1_EE11_M_data_ptrIS1_EEPT_S6_(ptr noundef nonnull align 8 dereferenceable(24) %0, ptr noundef %1) #1 comdat align 2 {
  %3 = alloca ptr, align 8
  %4 = alloca ptr, align 8
  store ptr %0, ptr %3, align 8, !tbaa !550
  store ptr %1, ptr %4, align 8, !tbaa !486
  %5 = load ptr, ptr %4, align 8, !tbaa !486
  ret ptr %5
}

; Function Attrs: inlinehint mustprogress uwtable
define linkonce_odr void @_ZZN3gmx5RangeIiEC1EiiENKUlvE_clEv(ptr noundef nonnull align 1 dereferenceable(1) %0) #8 comdat align 2 {
  %2 = alloca ptr, align 8
  store ptr %0, ptr %2, align 8, !tbaa !91
  call void @_ZN3gmx8internal13assertHandlerEPKcS2_S2_S2_i(ptr noundef @.str.31, ptr noundef @.str.32, ptr noundef @__PRETTY_FUNCTION__._ZZN3gmx5RangeIiEC1EiiENKUlvE_clEv, ptr noundef @.str.33, i32 noundef 111) #26
  unreachable
}

; Function Attrs: mustprogress nounwind uwtable
define linkonce_odr noundef i64 @_ZNK3gmx12ArrayRefIterIKNS_4GridEEmiES3_(ptr noundef nonnull align 8 dereferenceable(8) %0, ptr %1) #1 comdat align 2 {
  %3 = alloca %"struct.gmx::ArrayRefIter.94", align 8
  %4 = alloca ptr, align 8
  %5 = getelementptr inbounds nuw %"struct.gmx::ArrayRefIter.94", ptr %3, i32 0, i32 0
  store ptr %1, ptr %5, align 8
  store ptr %0, ptr %4, align 8, !tbaa !514
  %6 = load ptr, ptr %4, align 8
  %7 = getelementptr inbounds nuw %"struct.gmx::ArrayRefIter.94", ptr %6, i32 0, i32 0
  %8 = load ptr, ptr %7, align 8, !tbaa !516
  %9 = getelementptr inbounds nuw %"struct.gmx::ArrayRefIter.94", ptr %3, i32 0, i32 0
  %10 = load ptr, ptr %9, align 8, !tbaa !516
  %11 = ptrtoint ptr %8 to i64
  %12 = ptrtoint ptr %10 to i64
  %13 = sub i64 %11, %12
  %14 = sdiv exact i64 %13, 384
  ret i64 %14
}

; Function Attrs: mustprogress uwtable
define linkonce_odr { ptr, ptr } @_ZN3gmx22constArrayRefFromArrayINS_4GridEEENS_8ArrayRefIKT_EEPS4_m(ptr noundef %0, i64 noundef %1) #0 comdat {
  %3 = alloca %"class.gmx::ArrayRef.93", align 8
  %4 = alloca ptr, align 8
  %5 = alloca i64, align 8
  store ptr %0, ptr %4, align 8, !tbaa !486
  store i64 %1, ptr %5, align 8, !tbaa !76
  %6 = load ptr, ptr %4, align 8, !tbaa !486
  %7 = icmp ne ptr %6, null
  br i1 %7, label %8, label %13

8:                                                ; preds = %2
  %9 = load ptr, ptr %4, align 8, !tbaa !486
  %10 = load ptr, ptr %4, align 8, !tbaa !486
  %11 = load i64, ptr %5, align 8, !tbaa !76
  %12 = getelementptr inbounds nuw %"class.gmx::Grid", ptr %10, i64 %11
  call void @_ZN3gmx8ArrayRefIKNS_4GridEEC2EPS2_S4_(ptr noundef nonnull align 8 dereferenceable(16) %3, ptr noundef %9, ptr noundef %12)
  br label %14

13:                                               ; preds = %2
  call void @_ZN3gmx8ArrayRefIKNS_4GridEEC2Ev(ptr noundef nonnull align 8 dereferenceable(16) %3)
  br label %14

14:                                               ; preds = %13, %8
  %15 = load { ptr, ptr }, ptr %3, align 8
  ret { ptr, ptr } %15
}

; Function Attrs: mustprogress nounwind uwtable
define linkonce_odr noundef ptr @_ZNKSt6vectorIN3gmx4GridESaIS1_EE4dataEv(ptr noundef nonnull align 8 dereferenceable(24) %0) #1 comdat align 2 {
  %2 = alloca ptr, align 8
  store ptr %0, ptr %2, align 8, !tbaa !550
  %3 = load ptr, ptr %2, align 8
  %4 = getelementptr inbounds nuw %"struct.std::_Vector_base.79", ptr %3, i32 0, i32 0
  %5 = getelementptr inbounds nuw %"struct.std::_Vector_base<gmx::Grid, std::allocator<gmx::Grid>>::_Vector_impl_data", ptr %4, i32 0, i32 0
  %6 = load ptr, ptr %5, align 8, !tbaa !552
  %7 = call noundef ptr @_ZNKSt6vectorIN3gmx4GridESaIS1_EE11_M_data_ptrIS1_EEPT_S6_(ptr noundef nonnull align 8 dereferenceable(24) %3, ptr noundef %6) #18
  ret ptr %7
}

; Function Attrs: mustprogress uwtable
define linkonce_odr void @_ZN3gmx5RangeIiEC2Eii(ptr noundef nonnull align 4 dereferenceable(8) %0, i32 noundef %1, i32 noundef %2) unnamed_addr #0 comdat align 2 {
  %4 = alloca ptr, align 8
  %5 = alloca i32, align 4
  %6 = alloca i32, align 4
  %7 = alloca %class.anon.119, align 1
  store ptr %0, ptr %4, align 8, !tbaa !612
  store i32 %1, ptr %5, align 4, !tbaa !15
  store i32 %2, ptr %6, align 4, !tbaa !15
  %8 = load ptr, ptr %4, align 8
  %9 = getelementptr inbounds nuw %"class.gmx::Range", ptr %8, i32 0, i32 0
  %10 = load i32, ptr %5, align 4, !tbaa !15
  store i32 %10, ptr %9, align 4, !tbaa !616
  %11 = getelementptr inbounds nuw %"class.gmx::Range", ptr %8, i32 0, i32 1
  %12 = load i32, ptr %6, align 4, !tbaa !15
  store i32 %12, ptr %11, align 4, !tbaa !618
  %13 = getelementptr inbounds nuw %"class.gmx::Range", ptr %8, i32 0, i32 0
  %14 = load i32, ptr %13, align 4, !tbaa !616
  %15 = getelementptr inbounds nuw %"class.gmx::Range", ptr %8, i32 0, i32 1
  %16 = load i32, ptr %15, align 4, !tbaa !618
  %17 = icmp sle i32 %14, %16
  call void @llvm.lifetime.start.p0(i64 1, ptr %7) #18
  br i1 %17, label %18, label %19

18:                                               ; preds = %3
  br label %20

19:                                               ; preds = %3
  call void @_ZZN3gmx5RangeIiEC1EiiENKUlvE_clEv(ptr noundef nonnull align 1 dereferenceable(1) %7)
  br label %20

20:                                               ; preds = %19, %18
  call void @llvm.lifetime.end.p0(i64 1, ptr %7) #18
  ret void
}

; Function Attrs: mustprogress nounwind uwtable
define linkonce_odr noundef i64 @_ZNK3gmx8ArrayRefIKNS_4GridEE4sizeEv(ptr noundef nonnull align 8 dereferenceable(16) %0) #1 comdat align 2 {
  %2 = alloca ptr, align 8
  %3 = alloca %"struct.gmx::ArrayRefIter.94", align 8
  store ptr %0, ptr %2, align 8, !tbaa !484
  %4 = load ptr, ptr %2, align 8
  %5 = getelementptr inbounds nuw %"class.gmx::ArrayRef.93", ptr %4, i32 0, i32 1
  %6 = getelementptr inbounds nuw %"class.gmx::ArrayRef.93", ptr %4, i32 0, i32 0
  call void @llvm.memcpy.p0.p0.i64(ptr align 8 %3, ptr align 8 %6, i64 8, i1 false)
  %7 = getelementptr inbounds nuw %"struct.gmx::ArrayRefIter.94", ptr %3, i32 0, i32 0
  %8 = load ptr, ptr %7, align 8
  %9 = call noundef i64 @_ZNK3gmx12ArrayRefIterIKNS_4GridEEmiES3_(ptr noundef nonnull align 8 dereferenceable(8) %5, ptr %8) #18
  ret i64 %9
}

; Function Attrs: mustprogress uwtable
define linkonce_odr { ptr, ptr } @_ZNK3gmx7GridSet5gridsEv(ptr noundef nonnull align 8 dereferenceable(232) %0) #0 comdat align 2 {
  %2 = alloca %"class.gmx::ArrayRef.93", align 8
  %3 = alloca ptr, align 8
  store ptr %0, ptr %3, align 8, !tbaa !482
  %4 = load ptr, ptr %3, align 8
  %5 = getelementptr inbounds nuw %"class.gmx::GridSet", ptr %4, i32 0, i32 1
  %6 = call noundef ptr @_ZNKSt6vectorIN3gmx4GridESaIS1_EE4dataEv(ptr noundef nonnull align 8 dereferenceable(24) %5) #18
  %7 = getelementptr inbounds nuw %"class.gmx::GridSet", ptr %4, i32 0, i32 2
  %8 = load i32, ptr %7, align 8, !tbaa !513
  %9 = sext i32 %8 to i64
  %10 = call { ptr, ptr } @_ZN3gmx22constArrayRefFromArrayINS_4GridEEENS_8ArrayRefIKT_EEPS4_m(ptr noundef %6, i64 noundef %9)
  %11 = getelementptr inbounds nuw { ptr, ptr }, ptr %2, i32 0, i32 0
  %12 = extractvalue { ptr, ptr } %10, 0
  store ptr %12, ptr %11, align 8
  %13 = getelementptr inbounds nuw { ptr, ptr }, ptr %2, i32 0, i32 1
  %14 = extractvalue { ptr, ptr } %10, 1
  store ptr %14, ptr %13, align 8
  %15 = load { ptr, ptr }, ptr %2, align 8
  ret { ptr, ptr } %15
}

; Function Attrs: mustprogress uwtable
define internal i64 @_ZN3gmxL12getGridRangeERKNS_7GridSetENS_12AtomLocalityE(ptr noundef nonnull align 8 dereferenceable(232) %0, i32 noundef %1) #0 {
  %3 = alloca %"class.gmx::Range", align 4
  %4 = alloca ptr, align 8
  %5 = alloca i32, align 4
  %6 = alloca i32, align 4
  %7 = alloca i32, align 4
  %8 = alloca %"class.gmx::ArrayRef.93", align 8
  %9 = alloca %"class.gmx::ArrayRef.93", align 8
  store ptr %0, ptr %4, align 8, !tbaa !482
  store i32 %1, ptr %5, align 4, !tbaa !609
  call void @llvm.lifetime.start.p0(i64 4, ptr %6) #18
  store i32 0, ptr %6, align 4, !tbaa !15
  call void @llvm.lifetime.start.p0(i64 4, ptr %7) #18
  store i32 0, ptr %7, align 4, !tbaa !15
  %10 = load i32, ptr %5, align 4, !tbaa !609
  switch i32 %10, label %30 [
    i32 2, label %11
    i32 0, label %20
    i32 1, label %21
  ]

11:                                               ; preds = %2
  store i32 0, ptr %6, align 4, !tbaa !15
  call void @llvm.lifetime.start.p0(i64 16, ptr %8) #18
  %12 = load ptr, ptr %4, align 8, !tbaa !482
  %13 = call { ptr, ptr } @_ZNK3gmx7GridSet5gridsEv(ptr noundef nonnull align 8 dereferenceable(232) %12)
  %14 = getelementptr inbounds nuw { ptr, ptr }, ptr %8, i32 0, i32 0
  %15 = extractvalue { ptr, ptr } %13, 0
  store ptr %15, ptr %14, align 8
  %16 = getelementptr inbounds nuw { ptr, ptr }, ptr %8, i32 0, i32 1
  %17 = extractvalue { ptr, ptr } %13, 1
  store ptr %17, ptr %16, align 8
  %18 = call noundef i64 @_ZNK3gmx8ArrayRefIKNS_4GridEE4sizeEv(ptr noundef nonnull align 8 dereferenceable(16) %8)
  %19 = trunc i64 %18 to i32
  store i32 %19, ptr %7, align 4, !tbaa !15
  call void @llvm.lifetime.end.p0(i64 16, ptr %8) #18
  br label %31

20:                                               ; preds = %2
  store i32 0, ptr %6, align 4, !tbaa !15
  store i32 1, ptr %7, align 4, !tbaa !15
  br label %31

21:                                               ; preds = %2
  store i32 1, ptr %6, align 4, !tbaa !15
  call void @llvm.lifetime.start.p0(i64 16, ptr %9) #18
  %22 = load ptr, ptr %4, align 8, !tbaa !482
  %23 = call { ptr, ptr } @_ZNK3gmx7GridSet5gridsEv(ptr noundef nonnull align 8 dereferenceable(232) %22)
  %24 = getelementptr inbounds nuw { ptr, ptr }, ptr %9, i32 0, i32 0
  %25 = extractvalue { ptr, ptr } %23, 0
  store ptr %25, ptr %24, align 8
  %26 = getelementptr inbounds nuw { ptr, ptr }, ptr %9, i32 0, i32 1
  %27 = extractvalue { ptr, ptr } %23, 1
  store ptr %27, ptr %26, align 8
  %28 = call noundef i64 @_ZNK3gmx8ArrayRefIKNS_4GridEE4sizeEv(ptr noundef nonnull align 8 dereferenceable(16) %9)
  %29 = trunc i64 %28 to i32
  store i32 %29, ptr %7, align 4, !tbaa !15
  call void @llvm.lifetime.end.p0(i64 16, ptr %9) #18
  br label %31

30:                                               ; preds = %2
  br label %31

31:                                               ; preds = %30, %21, %20, %11
  %32 = load i32, ptr %6, align 4, !tbaa !15
  %33 = load i32, ptr %7, align 4, !tbaa !15
  call void @_ZN3gmx5RangeIiEC2Eii(ptr noundef nonnull align 4 dereferenceable(8) %3, i32 noundef %32, i32 noundef %33)
  call void @llvm.lifetime.end.p0(i64 4, ptr %7) #18
  call void @llvm.lifetime.end.p0(i64 4, ptr %6) #18
  %34 = load i64, ptr %3, align 4
  ret i64 %34
}

; Function Attrs: mustprogress nounwind uwtable
define linkonce_odr noundef zeroext i1 @_ZNK3gmx7GridSet31localAtomOrderMatchesNbnxmOrderEv(ptr noundef nonnull align 8 dereferenceable(232) %0) #1 comdat align 2 {
  %2 = alloca ptr, align 8
  store ptr %0, ptr %2, align 8, !tbaa !482
  %3 = load ptr, ptr %2, align 8
  %4 = getelementptr inbounds nuw %"class.gmx::GridSet", ptr %3, i32 0, i32 6
  %5 = load i8, ptr %4, align 1, !tbaa !611, !range !356, !noundef !357
  %6 = trunc i8 %5 to i1
  ret i1 %6
}

; Function Attrs: mustprogress uwtable
define void @_ZN3gmx31nbnxn_atomdata_copy_x_to_nbat_xERKNS_7GridSetENS_12AtomLocalityEPA3_KfPNS_16nbnxn_atomdata_tE(ptr noundef nonnull align 8 dereferenceable(232) %0, i32 noundef %1, ptr noundef %2, ptr noundef %3) #0 {
  %5 = alloca ptr, align 8
  %6 = alloca i32, align 4
  %7 = alloca ptr, align 8
  %8 = alloca ptr, align 8
  %9 = alloca i8, align 1
  %10 = alloca %"class.gmx::Range", align 4
  %11 = alloca i32, align 4
  %12 = call i32 @__kmpc_global_thread_num(ptr @2)
  store ptr %0, ptr %5, align 8, !tbaa !482
  store i32 %1, ptr %6, align 4, !tbaa !609
  store ptr %2, ptr %7, align 8, !tbaa !81
  store ptr %3, ptr %8, align 8, !tbaa !13
  call void @llvm.lifetime.start.p0(i64 1, ptr %9) #18
  %13 = load ptr, ptr %5, align 8, !tbaa !482
  %14 = call noundef zeroext i1 @_ZNK3gmx7GridSet31localAtomOrderMatchesNbnxmOrderEv(ptr noundef nonnull align 8 dereferenceable(232) %13)
  %15 = zext i1 %14 to i8
  store i8 %15, ptr %9, align 1, !tbaa !122
  call void @llvm.lifetime.start.p0(i64 8, ptr %10) #18
  %16 = load ptr, ptr %5, align 8, !tbaa !482
  %17 = load i32, ptr %6, align 4, !tbaa !609
  %18 = call i64 @_ZN3gmxL12getGridRangeERKNS_7GridSetENS_12AtomLocalityE(ptr noundef nonnull align 8 dereferenceable(232) %16, i32 noundef %17)
  store i64 %18, ptr %10, align 4
  call void @llvm.lifetime.start.p0(i64 4, ptr %11) #18
  %19 = call noundef i32 @_Z20gmx_omp_nthreads_get17ModuleMultiThread(i32 noundef 2)
  store i32 %19, ptr %11, align 4, !tbaa !15
  %20 = load i32, ptr %11, align 4, !tbaa !15
  call void @__kmpc_push_num_threads(ptr @2, i32 %12, i32 %20)
  %21 = load ptr, ptr %5, align 8, !tbaa !482
  call void (ptr, i32, ptr, ...) @__kmpc_fork_call(ptr @2, i32 6, ptr @_ZN3gmx31nbnxn_atomdata_copy_x_to_nbat_xERKNS_7GridSetENS_12AtomLocalityEPA3_KfPNS_16nbnxn_atomdata_tE.omp_outlined, ptr %11, ptr %10, ptr %21, ptr %9, ptr %7, ptr %8)
  call void @llvm.lifetime.end.p0(i64 4, ptr %11) #18
  call void @llvm.lifetime.end.p0(i64 8, ptr %10) #18
  call void @llvm.lifetime.end.p0(i64 1, ptr %9) #18
  ret void
}