; Function Attrs: mustprogress uwtable
define void @_ZN3gmx31nbnxn_atomdata_copy_x_to_nbat_xERKNS_7GridSetENS_12AtomLocalityEPA3_KfPNS_16nbnxn_atomdata_tE(ptr noundef nonnull align 8 dereferenceable(232) %0, i32 noundef %1, ptr noundef %2, ptr noundef %3) local_unnamed_addr #1 {
  %5 = alloca ptr, align 8
  %6 = alloca ptr, align 8
  %7 = alloca i8, align 1
  %8 = alloca %"class.gmx::Range", align 8
  %9 = alloca i32, align 4
  %10 = tail call i32 @__kmpc_global_thread_num(ptr nonnull @2)
  store ptr %2, ptr %5, align 8, !tbaa !255
  store ptr %3, ptr %6, align 8, !tbaa !252
  call void @llvm.lifetime.start.p0(i64 1, ptr nonnull %7) #23
  %11 = getelementptr inbounds nuw i8, ptr %0, i64 125
  %12 = load i8, ptr %11, align 1, !tbaa !300, !range !154, !noundef !155
  store i8 %12, ptr %7, align 1, !tbaa !148
  call void @llvm.lifetime.start.p0(i64 8, ptr nonnull %8) #23
  %13 = getelementptr inbounds nuw i8, ptr %0, i64 24
  %.val = load ptr, ptr %13, align 8
  %14 = getelementptr inbounds nuw i8, ptr %0, i64 48
  %.val3 = load i32, ptr %14, align 8
  switch i32 %1, label %_ZN3gmxL12getGridRangeERKNS_7GridSetENS_12AtomLocalityE.exit [
    i32 2, label %17
    i32 0, label %15
    i32 1, label %16
  ]

15:                                               ; preds = %4
  br label %_ZN3gmxL12getGridRangeERKNS_7GridSetENS_12AtomLocalityE.exit

16:                                               ; preds = %4
  br label %17

17:                                               ; preds = %16, %4
  %.04.i = phi i32 [ 1, %16 ], [ 0, %4 ]
  %18 = sext i32 %.val3 to i64
  %.not.i.i5.i = icmp eq ptr %.val, null
  %19 = getelementptr inbounds nuw %"class.gmx::Grid", ptr %.val, i64 %18
  %spec.select.i.i6.i = select i1 %.not.i.i5.i, ptr null, ptr %19
  %20 = ptrtoint ptr %spec.select.i.i6.i to i64
  %21 = ptrtoint ptr %.val to i64
  %22 = sub i64 %20, %21
  %.0.in.i = sdiv exact i64 %22, 384
  %.0.i = trunc i64 %.0.in.i to i32
  %.not.i.i = icmp sgt i32 %.04.i, %.0.i
  br i1 %.not.i.i, label %23, label %_ZN3gmxL12getGridRangeERKNS_7GridSetENS_12AtomLocalityE.exit

23:                                               ; preds = %17
  tail call void @_ZN3gmx8internal13assertHandlerEPKcS2_S2_S2_i(ptr noundef nonnull @.str.31, ptr noundef nonnull @.str.32, ptr noundef nonnull @__PRETTY_FUNCTION__._ZZN3gmx5RangeIiEC1EiiENKUlvE_clEv, ptr noundef nonnull @.str.33, i32 noundef 111) #31
  unreachable

_ZN3gmxL12getGridRangeERKNS_7GridSetENS_12AtomLocalityE.exit: ; preds = %4, %15, %17
  %.08.i = phi i64 [ %.0.in.i, %17 ], [ 1, %15 ], [ 0, %4 ]
  %.047.i = phi i32 [ %.04.i, %17 ], [ 0, %15 ], [ 0, %4 ]
  %.sroa.2.0.insert.ext.i = shl i64 %.08.i, 32
  %.sroa.03.0.insert.ext.i = zext nneg i32 %.047.i to i64
  %.sroa.03.0.insert.insert.i = or disjoint i64 %.sroa.2.0.insert.ext.i, %.sroa.03.0.insert.ext.i
  store i64 %.sroa.03.0.insert.insert.i, ptr %8, align 8
  call void @llvm.lifetime.start.p0(i64 4, ptr nonnull %9) #23
  %24 = tail call noundef i32 @_Z20gmx_omp_nthreads_get17ModuleMultiThread(i32 noundef 2)
  store i32 %24, ptr %9, align 4, !tbaa !100
  tail call void @__kmpc_push_num_threads(ptr nonnull @2, i32 %10, i32 %24)
  call void (ptr, i32, ptr, ...) @__kmpc_fork_call(ptr nonnull @2, i32 6, ptr nonnull @_ZN3gmx31nbnxn_atomdata_copy_x_to_nbat_xERKNS_7GridSetENS_12AtomLocalityEPA3_KfPNS_16nbnxn_atomdata_tE.omp_outlined, ptr nonnull %9, ptr nonnull %8, ptr nonnull %0, ptr nonnull %7, ptr nonnull %5, ptr nonnull %6)
  call void @llvm.lifetime.end.p0(i64 4, ptr nonnull %9) #23
  call void @llvm.lifetime.end.p0(i64 8, ptr nonnull %8) #23
  call void @llvm.lifetime.end.p0(i64 1, ptr nonnull %7) #23
  ret void
}